(lp0
S'http://i.nflcdn.com/static/site/7.2/img/logos/teams-gloss-81x54/bal.png'
p1
aS'http://i.nflcdn.com/static/site/7.2/img/logos/teams-gloss-81x54/cin.png'
p2
aS'http://i.nflcdn.com/static/site/7.2/img/logos/teams-gloss-81x54/cle.png'
p3
aS'http://i.nflcdn.com/static/site/7.2/img/logos/teams-gloss-81x54/pit.png'
p4
aS'http://i.nflcdn.com/static/site/7.2/img/logos/teams-gloss-81x54/hou.png'
p5
aS'http://i.nflcdn.com/static/site/7.2/img/logos/teams-gloss-81x54/ind.png'
p6
aS'http://i.nflcdn.com/static/site/7.2/img/logos/teams-gloss-81x54/jac.png'
p7
aS'http://i.nflcdn.com/static/site/7.2/img/logos/teams-gloss-81x54/ten.png'
p8
aS'http://i.nflcdn.com/static/site/7.2/img/logos/teams-gloss-81x54/buf.png'
p9
aS'http://i.nflcdn.com/static/site/7.2/img/logos/teams-gloss-81x54/mia.png'
p10
aS'http://i.nflcdn.com/static/site/7.2/img/logos/teams-gloss-81x54/ne.png'
p11
aS'http://i.nflcdn.com/static/site/7.2/img/logos/teams-gloss-81x54/nyj.png'
p12
aS'http://i.nflcdn.com/static/site/7.2/img/logos/teams-gloss-81x54/den.png'
p13
aS'http://i.nflcdn.com/static/site/7.2/img/logos/teams-gloss-81x54/kc.png'
p14
aS'http://i.nflcdn.com/static/site/7.2/img/logos/teams-gloss-81x54/oak.png'
p15
aS'http://i.nflcdn.com/static/site/7.2/img/logos/teams-gloss-81x54/sd.png'
p16
aS'http://i.nflcdn.com/static/site/7.2/img/logos/teams-gloss-81x54/chi.png'
p17
aS'http://i.nflcdn.com/static/site/7.2/img/logos/teams-gloss-81x54/det.png'
p18
aS'http://i.nflcdn.com/static/site/7.2/img/logos/teams-gloss-81x54/gb.png'
p19
aS'http://i.nflcdn.com/static/site/7.2/img/logos/teams-gloss-81x54/min.png'
p20
aS'http://i.nflcdn.com/static/site/7.2/img/logos/teams-gloss-81x54/atl.png'
p21
aS'http://i.nflcdn.com/static/site/7.2/img/logos/teams-gloss-81x54/car.png'
p22
aS'http://i.nflcdn.com/static/site/7.2/img/logos/teams-gloss-81x54/no.png'
p23
aS'http://i.nflcdn.com/static/site/7.2/img/logos/teams-gloss-81x54/tb.png'
p24
aS'http://i.nflcdn.com/static/site/7.2/img/logos/teams-gloss-81x54/dal.png'
p25
aS'http://i.nflcdn.com/static/site/7.2/img/logos/teams-gloss-81x54/nyg.png'
p26
aS'http://i.nflcdn.com/static/site/7.2/img/logos/teams-gloss-81x54/phi.png'
p27
aS'http://i.nflcdn.com/static/site/7.2/img/logos/teams-gloss-81x54/was.png'
p28
aS'http://i.nflcdn.com/static/site/7.2/img/logos/teams-gloss-81x54/ari.png'
p29
aS'http://i.nflcdn.com/static/site/7.2/img/logos/teams-gloss-81x54/sf.png'
p30
aS'http://i.nflcdn.com/static/site/7.2/img/logos/teams-gloss-81x54/sea.png'
p31
aS'http://i.nflcdn.com/static/site/7.2/img/logos/teams-gloss-81x54/stl.png'
p32
a.